target datalayout = "e-m:e-p270:32:32-p271:32:32-p272:64:64-i64:64-i128:128-f80:128-n8:16:32:64-S128"
target triple = "x86_64-pc-linux-gnu"

%struct.expert_field = type { i32, i32 }

@ett_dvbci_ca_desc = internal global i32 0, align 4
@hf_dvbci_ca_sys_id = internal global i32 0, align 4
@hf_dvbci_descr_len = internal global i32 0, align 4
@hf_dvbci_ca_pid = internal global i32 0, align 4
@hf_dvbci_ca_priv_data = internal global i32 0, align 4
@ei_dvbci_ca_pmt_cmd_id = internal global %struct.expert_field zeroinitializer, align 4
@.str.997 = private unnamed_addr constant [30 x i8] c"Conditional Access descriptor\00", align 1

; Function Attrs: null_pointer_is_valid sspstrong uwtable
define internal i32 @dissect_ca_desc(ptr noundef %0, i32 noundef %1, ptr noundef %2, ptr noundef %3) #0 {
  %5 = alloca i32, align 4
  %6 = alloca ptr, align 8
  %7 = alloca i32, align 4
  %8 = alloca ptr, align 8
  %9 = alloca ptr, align 8
  %10 = alloca i32, align 4
  %11 = alloca i8, align 1
  %12 = alloca i8, align 1
  %13 = alloca ptr, align 8
  %14 = alloca ptr, align 8
  %15 = alloca i32, align 4
  store ptr %0, ptr %6, align 8
  store i32 %1, ptr %7, align 4
  store ptr %2, ptr %8, align 8
  store ptr %3, ptr %9, align 8
  call void @llvm.lifetime.start.p0(i64 4, ptr %10) #11
  call void @llvm.lifetime.start.p0(i64 1, ptr %11) #11
  call void @llvm.lifetime.start.p0(i64 1, ptr %12) #11
  call void @llvm.lifetime.start.p0(i64 8, ptr %13) #11
  call void @llvm.lifetime.start.p0(i64 8, ptr %14) #11
  store ptr null, ptr %14, align 8
  %16 = load i32, ptr %7, align 4
  store i32 %16, ptr %10, align 4
  %17 = load ptr, ptr %6, align 8
  %18 = load i32, ptr %7, align 4
  %19 = call zeroext i8 @tvb_get_uint8(ptr noundef %17, i32 noundef %18)
  store i8 %19, ptr %11, align 1
  %20 = load i8, ptr %11, align 1
  %21 = zext i8 %20 to i32
  %22 = icmp ne i32 %21, 9
  br i1 %22, label %23, label %29

23:                                               ; preds = %4
  %24 = load ptr, ptr %9, align 8
  %25 = load ptr, ptr %8, align 8
  %26 = load ptr, ptr %6, align 8
  %27 = load i32, ptr %7, align 4
  %28 = call ptr @proto_tree_add_expert(ptr noundef %24, ptr noundef %25, ptr noundef @ei_dvbci_ca_pmt_cmd_id, ptr noundef %26, i32 noundef %27, i32 noundef 1)
  store i32 0, ptr %5, align 4
  store i32 1, ptr %15, align 4
  br label %87

29:                                               ; preds = %4
  %30 = load ptr, ptr %9, align 8
  %31 = load ptr, ptr %6, align 8
  %32 = load i32, ptr %10, align 4
  %33 = load i32, ptr @ett_dvbci_ca_desc, align 4
  %34 = call ptr @proto_tree_add_subtree(ptr noundef %30, ptr noundef %31, i32 noundef %32, i32 noundef -1, i32 noundef %33, ptr noundef %13, ptr noundef @.str.997)
  store ptr %34, ptr %14, align 8
  %35 = load i32, ptr %7, align 4
  %36 = add i32 %35, 1
  store i32 %36, ptr %7, align 4
  %37 = load ptr, ptr %6, align 8
  %38 = load i32, ptr %7, align 4
  %39 = call zeroext i8 @tvb_get_uint8(ptr noundef %37, i32 noundef %38)
  store i8 %39, ptr %12, align 1
  %40 = load ptr, ptr %14, align 8
  %41 = load i32, ptr @hf_dvbci_descr_len, align 4
  %42 = load ptr, ptr %6, align 8
  %43 = load i32, ptr %7, align 4
  %44 = call ptr @proto_tree_add_item(ptr noundef %40, i32 noundef %41, ptr noundef %42, i32 noundef %43, i32 noundef 1, i32 noundef 0)
  %45 = load i32, ptr %7, align 4
  %46 = add i32 %45, 1
  store i32 %46, ptr %7, align 4
  %47 = load ptr, ptr %14, align 8
  %48 = load i32, ptr @hf_dvbci_ca_sys_id, align 4
  %49 = load ptr, ptr %6, align 8
  %50 = load i32, ptr %7, align 4
  %51 = call ptr @proto_tree_add_item(ptr noundef %47, i32 noundef %48, ptr noundef %49, i32 noundef %50, i32 noundef 2, i32 noundef 0)
  %52 = load i32, ptr %7, align 4
  %53 = add i32 %52, 2
  store i32 %53, ptr %7, align 4
  %54 = load ptr, ptr %14, align 8
  %55 = load i32, ptr @hf_dvbci_ca_pid, align 4
  %56 = load ptr, ptr %6, align 8
  %57 = load i32, ptr %7, align 4
  %58 = call ptr @proto_tree_add_item(ptr noundef %54, i32 noundef %55, ptr noundef %56, i32 noundef %57, i32 noundef 2, i32 noundef 0)
  %59 = load i32, ptr %7, align 4
  %60 = add i32 %59, 2
  store i32 %60, ptr %7, align 4
  %61 = load i8, ptr %12, align 1
  %62 = zext i8 %61 to i32
  %63 = sub i32 %62, 4
  %64 = icmp ne i32 %63, 0
  br i1 %64, label %65, label %79

65:                                               ; preds = %29
  %66 = load ptr, ptr %14, align 8
  %67 = load i32, ptr @hf_dvbci_ca_priv_data, align 4
  %68 = load ptr, ptr %6, align 8
  %69 = load i32, ptr %7, align 4
  %70 = load i8, ptr %12, align 1
  %71 = zext i8 %70 to i32
  %72 = sub i32 %71, 4
  %73 = call ptr @proto_tree_add_item(ptr noundef %66, i32 noundef %67, ptr noundef %68, i32 noundef %69, i32 noundef %72, i32 noundef 0)
  %74 = load i8, ptr %12, align 1
  %75 = zext i8 %74 to i32
  %76 = sub i32 %75, 4
  %77 = load i32, ptr %7, align 4
  %78 = add i32 %77, %76
  store i32 %78, ptr %7, align 4
  br label %79

79:                                               ; preds = %65, %29
  %80 = load ptr, ptr %13, align 8
  %81 = load i32, ptr %7, align 4
  %82 = load i32, ptr %10, align 4
  %83 = sub i32 %81, %82
  call void @proto_item_set_len(ptr noundef %80, i32 noundef %83)
  %84 = load i32, ptr %7, align 4
  %85 = load i32, ptr %10, align 4
  %86 = sub i32 %84, %85
  store i32 %86, ptr %5, align 4
  store i32 1, ptr %15, align 4
  br label %87

87:                                               ; preds = %79, %23
  call void @llvm.lifetime.end.p0(i64 8, ptr %14) #11
  call void @llvm.lifetime.end.p0(i64 8, ptr %13) #11
  call void @llvm.lifetime.end.p0(i64 1, ptr %12) #11
  call void @llvm.lifetime.end.p0(i64 1, ptr %11) #11
  call void @llvm.lifetime.end.p0(i64 4, ptr %10) #11
  %88 = load i32, ptr %5, align 4
  ret i32 %88
}