; Function Attrs: null_pointer_is_valid sspstrong uwtable
define internal fastcc noundef i32 @dissect_ca_desc(ptr noundef %0, i32 noundef %1, ptr noundef %2, ptr noundef %3) unnamed_addr #1 {
  %5 = alloca ptr, align 8
  call void @llvm.lifetime.start.p0(i64 8, ptr nonnull %5) #16
  %6 = tail call zeroext i8 @tvb_get_uint8(ptr noundef %0, i32 noundef %1)
  %.not = icmp eq i8 %6, 9
  br i1 %.not, label %9, label %7

7:                                                ; preds = %4
  %8 = tail call ptr @proto_tree_add_expert(ptr noundef %3, ptr noundef %2, ptr noundef nonnull @ei_dvbci_ca_pmt_cmd_id, ptr noundef %0, i32 noundef %1, i32 noundef 1)
  br label %32

9:                                                ; preds = %4
  %10 = load i32, ptr @ett_dvbci_ca_desc, align 4
  %11 = call ptr @proto_tree_add_subtree(ptr noundef %3, ptr noundef %0, i32 noundef %1, i32 noundef -1, i32 noundef %10, ptr noundef nonnull %5, ptr noundef nonnull @.str.997)
  %12 = add i32 %1, 1
  %13 = call zeroext i8 @tvb_get_uint8(ptr noundef %0, i32 noundef %12)
  %14 = load i32, ptr @hf_dvbci_descr_len, align 4
  %15 = call ptr @proto_tree_add_item(ptr noundef %11, i32 noundef %14, ptr noundef %0, i32 noundef %12, i32 noundef 1, i32 noundef 0)
  %16 = add i32 %1, 2
  %17 = load i32, ptr @hf_dvbci_ca_sys_id, align 4
  %18 = call ptr @proto_tree_add_item(ptr noundef %11, i32 noundef %17, ptr noundef %0, i32 noundef %16, i32 noundef 2, i32 noundef 0)
  %19 = add i32 %1, 4
  %20 = load i32, ptr @hf_dvbci_ca_pid, align 4
  %21 = call ptr @proto_tree_add_item(ptr noundef %11, i32 noundef %20, ptr noundef %0, i32 noundef %19, i32 noundef 2, i32 noundef 0)
  %22 = add i32 %1, 6
  %23 = zext i8 %13 to i32
  %24 = add nsw i32 %23, -4
  %.not39 = icmp eq i32 %24, 0
  br i1 %.not39, label %29, label %25

25:                                               ; preds = %9
  %26 = load i32, ptr @hf_dvbci_ca_priv_data, align 4
  %27 = call ptr @proto_tree_add_item(ptr noundef %11, i32 noundef %26, ptr noundef %0, i32 noundef %22, i32 noundef %24, i32 noundef 0)
  %28 = add i32 %24, %22
  br label %29

29:                                               ; preds = %25, %9
  %.037 = phi i32 [ %28, %25 ], [ %22, %9 ]
  %30 = load ptr, ptr %5, align 8
  %31 = sub i32 %.037, %1
  call void @proto_item_set_len(ptr noundef %30, i32 noundef %31)
  br label %32

32:                                               ; preds = %29, %7
  %.0 = phi i32 [ 0, %7 ], [ %31, %29 ]
  call void @llvm.lifetime.end.p0(i64 8, ptr nonnull %5) #16
  ret i32 %.0
}